; Function Attrs: mustprogress nounwind uwtable
define hidden void @_ZN4llvh2cl10SubCommand18registerSubCommandEv(ptr noundef nonnull align 8 dereferenceable(168) %this) local_unnamed_addr #0 align 2 {
entry:
  %0 = load atomic i64, ptr @_ZL12GlobalParser acquire, align 8
  %tobool.not.i.i = icmp eq i64 %0, 0
  br i1 %tobool.not.i.i, label %if.then.i.i, label %_ZN4llvh13ManagedStaticIN12_GLOBAL__N_117CommandLineParserENS_14object_creatorIS2_EENS_14object_deleterIS2_EEEptEv.exit

if.then.i.i:                                      ; preds = %entry
  tail call void @_ZNK4llvh17ManagedStaticBase21RegisterManagedStaticEPFPvvEPFvS1_E(ptr noundef nonnull align 8 dereferenceable(24) @_ZL12GlobalParser, ptr noundef nonnull @_ZN4llvh14object_creatorIN12_GLOBAL__N_117CommandLineParserEE4callEv, ptr noundef nonnull @_ZN4llvh14object_deleterIN12_GLOBAL__N_117CommandLineParserEE4callEPv) #27
  br label %_ZN4llvh13ManagedStaticIN12_GLOBAL__N_117CommandLineParserENS_14object_creatorIS2_EENS_14object_deleterIS2_EEEptEv.exit

_ZN4llvh13ManagedStaticIN12_GLOBAL__N_117CommandLineParserENS_14object_creatorIS2_EENS_14object_deleterIS2_EEEptEv.exit: ; preds = %entry, %if.then.i.i
  %1 = load atomic i64, ptr @_ZL12GlobalParser monotonic, align 8
  %atomic-temp.i.0.i1.i.i = inttoptr i64 %1 to ptr
  tail call fastcc void @_ZN12_GLOBAL__N_117CommandLineParser18registerSubCommandEPN4llvh2cl10SubCommandE(ptr noundef nonnull align 8 dereferenceable(304) %atomic-temp.i.0.i1.i.i, ptr noundef nonnull %this)
  ret void
}